target datalayout = "e-m:e-p270:32:32-p271:32:32-p272:64:64-i64:64-i128:128-f80:128-n8:16:32:64-S128"
target triple = "x86_64-pc-linux-gnu"

%union.EX_STYPE = type { ptr }
%struct.Exnode_s = type { i64, i64, i8, %union.anon, %union.Exdata_u, i32 }
%union.anon = type { ptr }
%union.Exdata_u = type { %struct.anon.2 }
%struct.anon.2 = type { ptr, ptr, ptr, ptr }
%struct.Expr_s = type { ptr, ptr, [10 x ptr], ptr, ptr, ptr, ptr, ptr, ptr, %struct.agxbuf, %union.EX_STYPE, %struct.Exid_s, [512 x i8], ptr, i32, i32, i32, i64, i64, i32 }
%struct.agxbuf = type { %union.anon.10 }
%union.anon.10 = type { %struct.anon.11 }
%struct.anon.11 = type { ptr, i64, i64, [7 x i8], i8 }
%struct.Exid_s = type { %struct.dtlink_s_, i64, i64, i64, i64, ptr, ptr, [32 x i8] }
%struct.dtlink_s_ = type { ptr, %union.anon.12 }
%union.anon.12 = type { ptr }
%struct.anon.7 = type { ptr, ptr, ptr }

@.str.27 = private unnamed_addr constant [39 x i8] c"illegal start index in substr(%s,%lld)\00", align 1
@.str.28 = private unnamed_addr constant [39 x i8] c"illegal length in substr(%s,%lld,%lld)\00", align 1

; Function Attrs: nounwind uwtable
define internal ptr @exsubstr(ptr noundef %0, ptr noundef %1, ptr noundef %2) #0 {
  %4 = alloca %union.EX_STYPE, align 8
  %5 = alloca ptr, align 8
  %6 = alloca ptr, align 8
  %7 = alloca ptr, align 8
  %8 = alloca %union.EX_STYPE, align 8
  %9 = alloca %union.EX_STYPE, align 8
  %10 = alloca %union.EX_STYPE, align 8
  %11 = alloca i32, align 4
  %12 = alloca %union.EX_STYPE, align 8
  %13 = alloca %union.EX_STYPE, align 8
  %14 = alloca %union.EX_STYPE, align 8
  store ptr %0, ptr %5, align 8, !tbaa !3
  store ptr %1, ptr %6, align 8, !tbaa !8
  store ptr %2, ptr %7, align 8, !tbaa !10
  call void @llvm.lifetime.start.p0(i64 8, ptr %8) #15
  call void @llvm.lifetime.start.p0(i64 8, ptr %9) #15
  call void @llvm.lifetime.start.p0(i64 8, ptr %10) #15
  call void @llvm.lifetime.start.p0(i64 4, ptr %11) #15
  call void @llvm.lifetime.start.p0(i64 8, ptr %12) #15
  %15 = load ptr, ptr %5, align 8, !tbaa !3
  %16 = load ptr, ptr %6, align 8, !tbaa !8
  %17 = getelementptr inbounds nuw %struct.Exnode_s, ptr %16, i32 0, i32 4
  %18 = getelementptr inbounds nuw %struct.anon.7, ptr %17, i32 0, i32 0
  %19 = load ptr, ptr %18, align 8, !tbaa !11
  %20 = load ptr, ptr %7, align 8, !tbaa !10
  %21 = call ptr @eval(ptr noundef %15, ptr noundef %19, ptr noundef %20)
  %22 = getelementptr inbounds nuw %union.EX_STYPE, ptr %12, i32 0, i32 0
  store ptr %21, ptr %22, align 8
  call void @llvm.memcpy.p0.p0.i64(ptr align 8 %8, ptr align 8 %12, i64 8, i1 false), !tbaa.struct !34
  call void @llvm.lifetime.end.p0(i64 8, ptr %12) #15
  %23 = load ptr, ptr %8, align 8, !tbaa !11
  %24 = call i64 @strlen(ptr noundef %23) #18
  %25 = trunc i64 %24 to i32
  store i32 %25, ptr %11, align 4, !tbaa !38
  call void @llvm.lifetime.start.p0(i64 8, ptr %13) #15
  %26 = load ptr, ptr %5, align 8, !tbaa !3
  %27 = load ptr, ptr %6, align 8, !tbaa !8
  %28 = getelementptr inbounds nuw %struct.Exnode_s, ptr %27, i32 0, i32 4
  %29 = getelementptr inbounds nuw %struct.anon.7, ptr %28, i32 0, i32 1
  %30 = load ptr, ptr %29, align 8, !tbaa !11
  %31 = load ptr, ptr %7, align 8, !tbaa !10
  %32 = call ptr @eval(ptr noundef %26, ptr noundef %30, ptr noundef %31)
  %33 = getelementptr inbounds nuw %union.EX_STYPE, ptr %13, i32 0, i32 0
  store ptr %32, ptr %33, align 8
  call void @llvm.memcpy.p0.p0.i64(ptr align 8 %9, ptr align 8 %13, i64 8, i1 false), !tbaa.struct !34
  call void @llvm.lifetime.end.p0(i64 8, ptr %13) #15
  %34 = load i64, ptr %9, align 8, !tbaa !11
  %35 = icmp slt i64 %34, 0
  br i1 %35, label %41, label %36

36:                                               ; preds = %3
  %37 = load i32, ptr %11, align 4, !tbaa !38
  %38 = sext i32 %37 to i64
  %39 = load i64, ptr %9, align 8, !tbaa !11
  %40 = icmp slt i64 %38, %39
  br i1 %40, label %41, label %44

41:                                               ; preds = %36, %3
  %42 = load ptr, ptr %8, align 8, !tbaa !11
  %43 = load i64, ptr %9, align 8, !tbaa !11
  call void (ptr, ...) @exerror(ptr noundef @.str.27, ptr noundef %42, i64 noundef %43)
  br label %44

44:                                               ; preds = %41, %36
  %45 = load ptr, ptr %6, align 8, !tbaa !8
  %46 = getelementptr inbounds nuw %struct.Exnode_s, ptr %45, i32 0, i32 4
  %47 = getelementptr inbounds nuw %struct.anon.7, ptr %46, i32 0, i32 2
  %48 = load ptr, ptr %47, align 8, !tbaa !11
  %49 = icmp ne ptr %48, null
  br i1 %49, label %50, label %73

50:                                               ; preds = %44
  call void @llvm.lifetime.start.p0(i64 8, ptr %14) #15
  %51 = load ptr, ptr %5, align 8, !tbaa !3
  %52 = load ptr, ptr %6, align 8, !tbaa !8
  %53 = getelementptr inbounds nuw %struct.Exnode_s, ptr %52, i32 0, i32 4
  %54 = getelementptr inbounds nuw %struct.anon.7, ptr %53, i32 0, i32 2
  %55 = load ptr, ptr %54, align 8, !tbaa !11
  %56 = load ptr, ptr %7, align 8, !tbaa !10
  %57 = call ptr @eval(ptr noundef %51, ptr noundef %55, ptr noundef %56)
  %58 = getelementptr inbounds nuw %union.EX_STYPE, ptr %14, i32 0, i32 0
  store ptr %57, ptr %58, align 8
  call void @llvm.memcpy.p0.p0.i64(ptr align 8 %10, ptr align 8 %14, i64 8, i1 false), !tbaa.struct !34
  call void @llvm.lifetime.end.p0(i64 8, ptr %14) #15
  %59 = load i64, ptr %10, align 8, !tbaa !11
  %60 = icmp slt i64 %59, 0
  br i1 %60, label %68, label %61

61:                                               ; preds = %50
  %62 = load i32, ptr %11, align 4, !tbaa !38
  %63 = sext i32 %62 to i64
  %64 = load i64, ptr %9, align 8, !tbaa !11
  %65 = sub nsw i64 %63, %64
  %66 = load i64, ptr %10, align 8, !tbaa !11
  %67 = icmp slt i64 %65, %66
  br i1 %67, label %68, label %72

68:                                               ; preds = %61, %50
  %69 = load ptr, ptr %8, align 8, !tbaa !11
  %70 = load i64, ptr %9, align 8, !tbaa !11
  %71 = load i64, ptr %10, align 8, !tbaa !11
  call void (ptr, ...) @exerror(ptr noundef @.str.28, ptr noundef %69, i64 noundef %70, i64 noundef %71)
  br label %72

72:                                               ; preds = %68, %61
  br label %78

73:                                               ; preds = %44
  %74 = load i32, ptr %11, align 4, !tbaa !38
  %75 = sext i32 %74 to i64
  %76 = load i64, ptr %9, align 8, !tbaa !11
  %77 = sub nsw i64 %75, %76
  store i64 %77, ptr %10, align 8, !tbaa !11
  br label %78

78:                                               ; preds = %73, %72
  %79 = load ptr, ptr %5, align 8, !tbaa !3
  %80 = getelementptr inbounds nuw %struct.Expr_s, ptr %79, i32 0, i32 4
  %81 = load ptr, ptr %80, align 8, !tbaa !74
  %82 = load i64, ptr %10, align 8, !tbaa !11
  %83 = add nsw i64 %82, 1
  %84 = call ptr @vmalloc(ptr noundef %81, i64 noundef %83)
  store ptr %84, ptr %4, align 8, !tbaa !11
  %85 = load ptr, ptr %6, align 8, !tbaa !8
  %86 = getelementptr inbounds nuw %struct.Exnode_s, ptr %85, i32 0, i32 4
  %87 = getelementptr inbounds nuw %struct.anon.7, ptr %86, i32 0, i32 2
  %88 = load ptr, ptr %87, align 8, !tbaa !11
  %89 = icmp ne ptr %88, null
  br i1 %89, label %90, label %100

90:                                               ; preds = %78
  %91 = load ptr, ptr %4, align 8, !tbaa !11
  %92 = load ptr, ptr %8, align 8, !tbaa !11
  %93 = load i64, ptr %9, align 8, !tbaa !11
  %94 = getelementptr inbounds i8, ptr %92, i64 %93
  %95 = load i64, ptr %10, align 8, !tbaa !11
  %96 = call ptr @strncpy(ptr noundef %91, ptr noundef %94, i64 noundef %95) #15
  %97 = load ptr, ptr %4, align 8, !tbaa !11
  %98 = load i64, ptr %10, align 8, !tbaa !11
  %99 = getelementptr inbounds i8, ptr %97, i64 %98
  store i8 0, ptr %99, align 1, !tbaa !11
  br label %106

100:                                              ; preds = %78
  %101 = load ptr, ptr %4, align 8, !tbaa !11
  %102 = load ptr, ptr %8, align 8, !tbaa !11
  %103 = load i64, ptr %9, align 8, !tbaa !11
  %104 = getelementptr inbounds i8, ptr %102, i64 %103
  %105 = call ptr @strcpy(ptr noundef %101, ptr noundef %104) #15
  br label %106

106:                                              ; preds = %100, %90
  call void @llvm.lifetime.end.p0(i64 4, ptr %11) #15
  call void @llvm.lifetime.end.p0(i64 8, ptr %10) #15
  call void @llvm.lifetime.end.p0(i64 8, ptr %9) #15
  call void @llvm.lifetime.end.p0(i64 8, ptr %8) #15
  %107 = getelementptr inbounds nuw %union.EX_STYPE, ptr %4, i32 0, i32 0
  %108 = load ptr, ptr %107, align 8
  ret ptr %108
}