; Function Attrs: nounwind uwtable
define internal fastcc ptr @exsubstr(ptr noundef %0, ptr noundef nonnull readonly captures(none) %1, ptr noundef %2) unnamed_addr #0 {
  %4 = getelementptr inbounds nuw i8, ptr %1, i64 32
  %5 = load ptr, ptr %4, align 8, !tbaa !3
  %6 = tail call fastcc ptr @eval(ptr noundef %0, ptr noundef %5, ptr noundef %2)
  %7 = tail call i64 @strlen(ptr noundef nonnull dereferenceable(1) %6) #30
  %8 = getelementptr inbounds nuw i8, ptr %1, i64 40
  %9 = load ptr, ptr %8, align 8, !tbaa !3
  %10 = tail call fastcc ptr @eval(ptr noundef %0, ptr noundef %9, ptr noundef %2)
  %11 = ptrtoint ptr %10 to i64
  %12 = icmp slt ptr %10, null
  br i1 %12, label %16, label %13

13:                                               ; preds = %3
  %sext = shl i64 %7, 32
  %14 = ashr exact i64 %sext, 32
  %15 = icmp slt i64 %14, %11
  br i1 %15, label %16, label %17

16:                                               ; preds = %13, %3
  tail call void (ptr, ...) @exerror(ptr noundef nonnull @.str.27, ptr noundef nonnull %6, i64 noundef %11) #25
  br label %17

17:                                               ; preds = %16, %13
  %18 = getelementptr inbounds nuw i8, ptr %1, i64 48
  %19 = load ptr, ptr %18, align 8, !tbaa !3
  %.not = icmp eq ptr %19, null
  br i1 %.not, label %29, label %20

20:                                               ; preds = %17
  %21 = tail call fastcc ptr @eval(ptr noundef %0, ptr noundef nonnull %19, ptr noundef %2)
  %22 = ptrtoint ptr %21 to i64
  %23 = icmp slt ptr %21, null
  br i1 %23, label %28, label %24

24:                                               ; preds = %20
  %sext42 = shl i64 %7, 32
  %25 = ashr exact i64 %sext42, 32
  %26 = sub nsw i64 %25, %11
  %27 = icmp slt i64 %26, %22
  br i1 %27, label %28, label %32

28:                                               ; preds = %24, %20
  tail call void (ptr, ...) @exerror(ptr noundef nonnull @.str.28, ptr noundef nonnull %6, i64 noundef %11, i64 noundef %22) #25
  br label %32

29:                                               ; preds = %17
  %sext41 = shl i64 %7, 32
  %30 = ashr exact i64 %sext41, 32
  %31 = sub nsw i64 %30, %11
  br label %32

32:                                               ; preds = %24, %28, %29
  %.pre-phi = phi i64 [ %22, %24 ], [ %22, %28 ], [ %31, %29 ]
  %33 = getelementptr inbounds nuw i8, ptr %0, i64 104
  %34 = load ptr, ptr %33, align 8, !tbaa !67
  %35 = add nsw i64 %.pre-phi, 1
  %36 = tail call ptr @vmalloc(ptr noundef %34, i64 noundef %35) #25
  %37 = load ptr, ptr %18, align 8, !tbaa !3
  %.not43 = icmp eq ptr %37, null
  %38 = getelementptr inbounds i8, ptr %6, i64 %11
  br i1 %.not43, label %42, label %39

39:                                               ; preds = %32
  %40 = tail call ptr @strncpy(ptr noundef %36, ptr noundef nonnull %38, i64 noundef %.pre-phi) #25
  %41 = getelementptr inbounds i8, ptr %36, i64 %.pre-phi
  store i8 0, ptr %41, align 1, !tbaa !3
  br label %44

42:                                               ; preds = %32
  %43 = tail call ptr @strcpy(ptr noundef nonnull dereferenceable(1) %36, ptr noundef nonnull dereferenceable(1) %38) #25
  br label %44

44:                                               ; preds = %42, %39
  ret ptr %36
}